; Function Attrs: nounwind uwtable
define ptr @l___private_Lean_Meta_ArgsPacker_0__Lean_Meta_ArgsPacker_Unary_mkTupleElems(ptr noundef %0, ptr noundef %1) local_unnamed_addr #1 {
  %3 = ptrtoint ptr %1 to i64
  %4 = and i64 %3, 1
  %.not = icmp eq i64 %4, 0
  br i1 %.not, label %5, label %lean_inc.exit18

5:                                                ; preds = %2
  %.val.i = load i32, ptr %1, align 4, !tbaa !8
  %6 = icmp sgt i32 %.val.i, 0
  br i1 %6, label %7, label %9, !prof !11

7:                                                ; preds = %5
  %8 = add nuw i32 %.val.i, 1
  store i32 %8, ptr %1, align 4, !tbaa !8
  br label %lean_inc.exit18

9:                                                ; preds = %5
  %.not.i21 = icmp eq i32 %.val.i, 0
  br i1 %.not.i21, label %lean_inc.exit18, label %10

10:                                               ; preds = %9
  tail call void @lean_inc_ref_cold(ptr noundef nonnull %1) #7
  br label %lean_inc.exit18

lean_inc.exit18:                                  ; preds = %10, %9, %7, %2
  tail call void @lean_inc_heartbeat() #7
  %11 = tail call noalias ptr @mi_malloc_small(i64 noundef 40) #7
  %12 = icmp eq ptr %11, null
  br i1 %12, label %13, label %lean_alloc_closure.exit

13:                                               ; preds = %lean_inc.exit18
  tail call void @lean_internal_panic_out_of_memory() #8
  unreachable

lean_alloc_closure.exit:                          ; preds = %lean_inc.exit18
  %14 = getelementptr inbounds nuw i8, ptr %11, i64 4
  store i32 1, ptr %11, align 4, !tbaa !8
  store i32 -184549336, ptr %14, align 4
  %15 = getelementptr inbounds nuw i8, ptr %11, i64 8
  store ptr @l___private_Lean_Meta_ArgsPacker_0__Lean_Meta_ArgsPacker_Unary_mkTupleElems___lambda__1___boxed, ptr %15, align 8, !tbaa !12
  %16 = getelementptr inbounds nuw i8, ptr %11, i64 16
  store i16 3, ptr %16, align 8, !tbaa !16
  %17 = getelementptr inbounds nuw i8, ptr %11, i64 18
  store i16 2, ptr %17, align 2, !tbaa !16
  %18 = getelementptr inbounds nuw i8, ptr %11, i64 24
  store ptr %1, ptr %18, align 8, !tbaa !12
  %19 = getelementptr inbounds nuw i8, ptr %11, i64 32
  store ptr %0, ptr %19, align 8, !tbaa !12
  br i1 %.not, label %21, label %lean_nat_eq.exit.thread, !prof !15

lean_nat_eq.exit.thread:                          ; preds = %lean_alloc_closure.exit
  %20 = icmp eq ptr %1, inttoptr (i64 1 to ptr)
  br i1 %20, label %43, label %29

21:                                               ; preds = %lean_alloc_closure.exit
  %22 = tail call zeroext i1 @lean_nat_big_eq(ptr noundef %1, ptr noundef nonnull inttoptr (i64 1 to ptr)) #7
  %23 = load i32, ptr %1, align 4, !tbaa !8
  %24 = icmp sgt i32 %23, 1
  br i1 %24, label %25, label %27, !prof !11

25:                                               ; preds = %21
  %26 = add nsw i32 %23, -1
  store i32 %26, ptr %1, align 4, !tbaa !8
  br i1 %22, label %43, label %29

27:                                               ; preds = %21
  %.not.i = icmp eq i32 %23, 0
  br i1 %.not.i, label %lean_dec.exit17, label %28

28:                                               ; preds = %27
  tail call void @lean_dec_ref_cold(ptr noundef nonnull %1) #7
  br i1 %22, label %43, label %29

lean_dec.exit17:                                  ; preds = %27
  br i1 %22, label %43, label %29

29:                                               ; preds = %28, %25, %lean_nat_eq.exit.thread, %lean_dec.exit17
  %30 = load ptr, ptr @l_Id_instMonad, align 8, !tbaa !12
  %31 = getelementptr inbounds nuw i8, ptr %30, i64 16
  %32 = load ptr, ptr %31, align 8, !tbaa !12
  %33 = ptrtoint ptr %32 to i64
  %34 = and i64 %33, 1
  %.not27 = icmp eq i64 %34, 0
  br i1 %.not27, label %35, label %lean_inc.exit

35:                                               ; preds = %29
  %.val.i22 = load i32, ptr %32, align 4, !tbaa !8
  %36 = icmp sgt i32 %.val.i22, 0
  br i1 %36, label %37, label %39, !prof !11

37:                                               ; preds = %35
  %38 = add nuw i32 %.val.i22, 1
  store i32 %38, ptr %32, align 4, !tbaa !8
  br label %lean_inc.exit

39:                                               ; preds = %35
  %.not.i23 = icmp eq i32 %.val.i22, 0
  br i1 %.not.i23, label %lean_inc.exit, label %40

40:                                               ; preds = %39
  tail call void @lean_inc_ref_cold(ptr noundef nonnull %32) #7
  br label %lean_inc.exit

lean_inc.exit:                                    ; preds = %40, %39, %37, %29
  %41 = load ptr, ptr @l___private_Lean_Meta_ArgsPacker_0__Lean_Meta_ArgsPacker_Unary_mkTupleElems___closed__1, align 8, !tbaa !12
  %42 = tail call ptr @lean_apply_4(ptr noundef %32, ptr noundef nonnull inttoptr (i64 1 to ptr), ptr noundef nonnull inttoptr (i64 1 to ptr), ptr noundef %41, ptr noundef nonnull %11) #7
  br label %54

43:                                               ; preds = %28, %25, %lean_nat_eq.exit.thread, %lean_dec.exit17
  %44 = ptrtoint ptr %11 to i64
  %45 = and i64 %44, 1
  %.not26 = icmp eq i64 %45, 0
  br i1 %.not26, label %46, label %lean_dec.exit

46:                                               ; preds = %43
  %47 = load i32, ptr %11, align 4, !tbaa !8
  %48 = icmp sgt i32 %47, 1
  br i1 %48, label %49, label %51, !prof !11

49:                                               ; preds = %46
  %50 = add nsw i32 %47, -1
  store i32 %50, ptr %11, align 4, !tbaa !8
  br label %lean_dec.exit

51:                                               ; preds = %46
  %.not.i19 = icmp eq i32 %47, 0
  br i1 %.not.i19, label %lean_dec.exit, label %52

52:                                               ; preds = %51
  tail call void @lean_dec_ref_cold(ptr noundef nonnull %11) #7
  br label %lean_dec.exit

lean_dec.exit:                                    ; preds = %52, %51, %49, %43
  %53 = load ptr, ptr @l___private_Lean_Meta_ArgsPacker_0__Lean_Meta_ArgsPacker_Unary_mkTupleElems___closed__2, align 8, !tbaa !12
  br label %54

54:                                               ; preds = %lean_dec.exit, %lean_inc.exit
  %.0 = phi ptr [ %42, %lean_inc.exit ], [ %53, %lean_dec.exit ]
  ret ptr %.0
}